target datalayout = "e-m:e-p270:32:32-p271:32:32-p272:64:64-i64:64-i128:128-f80:128-n8:16:32:64-S128"
target triple = "x86_64-pc-linux-gnu"

@ff_h264_check_intra_pred_mode.top = internal constant [4 x i8] c"\04\01\FF\FF", align 1
@ff_h264_check_intra_pred_mode.left = internal constant [5 x i8] c"\05\FF\02\FF\06", align 1
@.str.5 = private unnamed_addr constant [37 x i8] c"out of range intra chroma pred mode\0A\00", align 1
@.str.6 = private unnamed_addr constant [48 x i8] c"top block unavailable for requested intra mode\0A\00", align 1
@.str.7 = private unnamed_addr constant [49 x i8] c"left block unavailable for requested intra mode\0A\00", align 1

; Function Attrs: nounwind uwtable
define i32 @ff_h264_check_intra_pred_mode(ptr noundef %0, i32 noundef %1, i32 noundef %2, i32 noundef %3, i32 noundef %4) #0 {
  %6 = alloca i32, align 4
  %7 = alloca ptr, align 8
  %8 = alloca i32, align 4
  %9 = alloca i32, align 4
  %10 = alloca i32, align 4
  %11 = alloca i32, align 4
  store ptr %0, ptr %7, align 8, !tbaa !17
  store i32 %1, ptr %8, align 4, !tbaa !13
  store i32 %2, ptr %9, align 4, !tbaa !13
  store i32 %3, ptr %10, align 4, !tbaa !13
  store i32 %4, ptr %11, align 4, !tbaa !13
  %12 = load i32, ptr %10, align 4, !tbaa !13
  %13 = icmp ugt i32 %12, 3
  br i1 %13, label %14, label %16

14:                                               ; preds = %5
  %15 = load ptr, ptr %7, align 8, !tbaa !17
  call void (ptr, i32, ptr, ...) @av_log(ptr noundef %15, i32 noundef 16, ptr noundef @.str.5)
  store i32 -1094995529, ptr %6, align 4
  br label %67

16:                                               ; preds = %5
  %17 = load i32, ptr %8, align 4, !tbaa !13
  %18 = and i32 %17, 32768
  %19 = icmp ne i32 %18, 0
  br i1 %19, label %31, label %20

20:                                               ; preds = %16
  %21 = load i32, ptr %10, align 4, !tbaa !13
  %22 = sext i32 %21 to i64
  %23 = getelementptr inbounds [4 x i8], ptr @ff_h264_check_intra_pred_mode.top, i64 0, i64 %22
  %24 = load i8, ptr %23, align 1, !tbaa !40
  %25 = sext i8 %24 to i32
  store i32 %25, ptr %10, align 4, !tbaa !13
  %26 = load i32, ptr %10, align 4, !tbaa !13
  %27 = icmp slt i32 %26, 0
  br i1 %27, label %28, label %30

28:                                               ; preds = %20
  %29 = load ptr, ptr %7, align 8, !tbaa !17
  call void (ptr, i32, ptr, ...) @av_log(ptr noundef %29, i32 noundef 16, ptr noundef @.str.6)
  store i32 -1094995529, ptr %6, align 4
  br label %67

30:                                               ; preds = %20
  br label %31

31:                                               ; preds = %30, %16
  %32 = load i32, ptr %9, align 4, !tbaa !13
  %33 = and i32 %32, 32896
  %34 = icmp ne i32 %33, 32896
  br i1 %34, label %35, label %65

35:                                               ; preds = %31
  %36 = load i32, ptr %10, align 4, !tbaa !13
  %37 = sext i32 %36 to i64
  %38 = getelementptr inbounds [5 x i8], ptr @ff_h264_check_intra_pred_mode.left, i64 0, i64 %37
  %39 = load i8, ptr %38, align 1, !tbaa !40
  %40 = sext i8 %39 to i32
  store i32 %40, ptr %10, align 4, !tbaa !13
  %41 = load i32, ptr %10, align 4, !tbaa !13
  %42 = icmp slt i32 %41, 0
  br i1 %42, label %43, label %45

43:                                               ; preds = %35
  %44 = load ptr, ptr %7, align 8, !tbaa !17
  call void (ptr, i32, ptr, ...) @av_log(ptr noundef %44, i32 noundef 16, ptr noundef @.str.7)
  store i32 -1094995529, ptr %6, align 4
  br label %67

45:                                               ; preds = %35
  %46 = load i32, ptr %11, align 4, !tbaa !13
  %47 = icmp ne i32 %46, 0
  br i1 %47, label %48, label %64

48:                                               ; preds = %45
  %49 = load i32, ptr %9, align 4, !tbaa !13
  %50 = and i32 %49, 32896
  %51 = icmp ne i32 %50, 0
  br i1 %51, label %52, label %64

52:                                               ; preds = %48
  %53 = load i32, ptr %9, align 4, !tbaa !13
  %54 = and i32 %53, 32768
  %55 = icmp ne i32 %54, 0
  %56 = xor i1 %55, true
  %57 = zext i1 %56 to i32
  %58 = add nsw i32 7, %57
  %59 = load i32, ptr %10, align 4, !tbaa !13
  %60 = icmp eq i32 %59, 6
  %61 = zext i1 %60 to i32
  %62 = mul nsw i32 2, %61
  %63 = add nsw i32 %58, %62
  store i32 %63, ptr %10, align 4, !tbaa !13
  br label %64

64:                                               ; preds = %52, %48, %45
  br label %65

65:                                               ; preds = %64, %31
  %66 = load i32, ptr %10, align 4, !tbaa !13
  store i32 %66, ptr %6, align 4
  br label %67

67:                                               ; preds = %65, %43, %28, %14
  %68 = load i32, ptr %6, align 4
  ret i32 %68
}