; Function Attrs: nounwind uwtable
define range(i32 -1094995529, 128) i32 @ff_h264_check_intra_pred_mode(ptr noundef %0, i32 noundef %1, i32 noundef %2, i32 noundef %3, i32 noundef %4) local_unnamed_addr #0 {
  %6 = icmp ugt i32 %3, 3
  br i1 %6, label %7, label %8

7:                                                ; preds = %5
  tail call void (ptr, i32, ptr, ...) @av_log(ptr noundef %0, i32 noundef 16, ptr noundef nonnull @.str.5) #8
  br label %34

8:                                                ; preds = %5
  %9 = and i32 %1, 32768
  %.not = icmp eq i32 %9, 0
  br i1 %.not, label %10, label %16

10:                                               ; preds = %8
  %11 = zext nneg i32 %3 to i64
  %12 = getelementptr inbounds nuw [4 x i8], ptr @ff_h264_check_intra_pred_mode.top, i64 0, i64 %11
  %13 = load i8, ptr %12, align 1, !tbaa !16
  %14 = sext i8 %13 to i32
  %.not20 = icmp samesign ult i32 %3, 2
  br i1 %.not20, label %16, label %15

15:                                               ; preds = %10
  tail call void (ptr, i32, ptr, ...) @av_log(ptr noundef %0, i32 noundef 16, ptr noundef nonnull @.str.6) #8
  br label %34

16:                                               ; preds = %10, %8
  %.015 = phi i32 [ %3, %8 ], [ %14, %10 ]
  %17 = and i32 %2, 32896
  %.not21 = icmp eq i32 %17, 32896
  br i1 %.not21, label %34, label %18

18:                                               ; preds = %16
  %19 = and i32 %.015, -3
  %20 = icmp eq i32 %19, 1
  br i1 %20, label %21, label %22

21:                                               ; preds = %18
  tail call void (ptr, i32, ptr, ...) @av_log(ptr noundef %0, i32 noundef 16, ptr noundef nonnull @.str.7) #8
  br label %34

22:                                               ; preds = %18
  %23 = zext nneg i32 %.015 to i64
  %24 = getelementptr inbounds nuw [5 x i8], ptr @ff_h264_check_intra_pred_mode.left, i64 0, i64 %23
  %25 = load i8, ptr %24, align 1, !tbaa !16
  %26 = sext i8 %25 to i32
  %.not22 = icmp eq i32 %4, 0
  %.not23 = icmp eq i32 %17, 0
  %or.cond = or i1 %.not23, %.not22
  br i1 %or.cond, label %34, label %27

27:                                               ; preds = %22
  %28 = shl i32 %2, 16
  %29 = ashr i32 %28, 31
  %30 = add nsw i32 %29, 8
  %31 = icmp eq i32 %.015, 4
  %32 = select i1 %31, i32 2, i32 0
  %33 = add nuw nsw i32 %30, %32
  br label %34

34:                                               ; preds = %16, %27, %22, %21, %15, %7
  %.0 = phi i32 [ -1094995529, %7 ], [ -1094995529, %21 ], [ -1094995529, %15 ], [ %33, %27 ], [ %26, %22 ], [ %.015, %16 ]
  ret i32 %.0
}